target datalayout = "e-m:e-p270:32:32-p271:32:32-p272:64:64-i64:64-i128:128-f80:128-n8:16:32:64-S128"
target triple = "x86_64-pc-linux-gnu"

%struct.FunctionCallInfoBaseData = type { ptr, ptr, ptr, i32, i8, i16, [0 x %struct.NullableDatum] }
%struct.NullableDatum = type { i64, i8 }
%struct.varattrib_1b = type { i8, [0 x i8] }
%struct.anon = type { i32, [0 x i8] }
%struct.inet_struct = type { i8, i8, [16 x i8] }

; Function Attrs: inlinehint nounwind uwtable
define internal i64 @PointerGetDatum(ptr noundef %0) #2 {
  %2 = alloca ptr, align 8
  store ptr %0, ptr %2, align 8
  %3 = load ptr, ptr %2, align 8
  %4 = ptrtoint ptr %3 to i64
  ret i64 %4
}

; Function Attrs: inlinehint nounwind uwtable
define internal ptr @DatumGetPointer(i64 noundef %0) #2 {
  %2 = alloca i64, align 8
  store i64 %0, ptr %2, align 8
  %3 = load i64, ptr %2, align 8
  %4 = inttoptr i64 %3 to ptr
  ret ptr %4
}

; Function Attrs: inlinehint nounwind uwtable
define internal i64 @InetPGetDatum(ptr noundef %0) #2 {
  %2 = alloca ptr, align 8
  store ptr %0, ptr %2, align 8
  %3 = load ptr, ptr %2, align 8
  %4 = call i64 @PointerGetDatum(ptr noundef %3)
  ret i64 %4
}

; Function Attrs: inlinehint nounwind uwtable
define internal ptr @DatumGetInetPP(i64 noundef %0) #2 {
  %2 = alloca i64, align 8
  store i64 %0, ptr %2, align 8
  %3 = load i64, ptr %2, align 8
  %4 = call ptr @DatumGetPointer(i64 noundef %3)
  %5 = call ptr @pg_detoast_datum_packed(ptr noundef %4)
  ret ptr %5
}

; Function Attrs: nounwind uwtable
define dso_local i64 @network_hostmask(ptr noundef %0) #0 {
  %2 = alloca ptr, align 8
  %3 = alloca ptr, align 8
  %4 = alloca ptr, align 8
  %5 = alloca i32, align 4
  %6 = alloca i32, align 4
  %7 = alloca i32, align 4
  %8 = alloca i8, align 1
  %9 = alloca ptr, align 8
  store ptr %0, ptr %2, align 8
  call void @llvm.lifetime.start.p0(i64 8, ptr %3) #8
  %10 = load ptr, ptr %2, align 8
  %11 = getelementptr inbounds nuw %struct.FunctionCallInfoBaseData, ptr %10, i32 0, i32 6
  %12 = getelementptr inbounds [0 x %struct.NullableDatum], ptr %11, i64 0, i64 0
  %13 = getelementptr inbounds nuw %struct.NullableDatum, ptr %12, i32 0, i32 0
  %14 = load i64, ptr %13, align 8
  %15 = call ptr @DatumGetInetPP(i64 noundef %14)
  store ptr %15, ptr %3, align 8
  call void @llvm.lifetime.start.p0(i64 8, ptr %4) #8
  call void @llvm.lifetime.start.p0(i64 4, ptr %5) #8
  call void @llvm.lifetime.start.p0(i64 4, ptr %6) #8
  call void @llvm.lifetime.start.p0(i64 4, ptr %7) #8
  call void @llvm.lifetime.start.p0(i64 1, ptr %8) #8
  call void @llvm.lifetime.start.p0(i64 8, ptr %9) #8
  %16 = call ptr @palloc0(i64 noundef 22)
  store ptr %16, ptr %4, align 8
  %17 = load ptr, ptr %3, align 8
  %18 = getelementptr inbounds nuw %struct.varattrib_1b, ptr %17, i32 0, i32 0
  %19 = load i8, ptr %18, align 1
  %20 = zext i8 %19 to i32
  %21 = and i32 %20, 1
  %22 = icmp eq i32 %21, 1
  br i1 %22, label %23, label %27

23:                                               ; preds = %1
  %24 = load ptr, ptr %3, align 8
  %25 = getelementptr inbounds nuw %struct.varattrib_1b, ptr %24, i32 0, i32 1
  %26 = getelementptr inbounds [0 x i8], ptr %25, i64 0, i64 0
  br label %31

27:                                               ; preds = %1
  %28 = load ptr, ptr %3, align 8
  %29 = getelementptr inbounds nuw %struct.anon, ptr %28, i32 0, i32 1
  %30 = getelementptr inbounds [0 x i8], ptr %29, i64 0, i64 0
  br label %31

31:                                               ; preds = %27, %23
  %32 = phi ptr [ %26, %23 ], [ %30, %27 ]
  %33 = getelementptr inbounds nuw %struct.inet_struct, ptr %32, i32 0, i32 0
  %34 = load i8, ptr %33, align 1
  %35 = zext i8 %34 to i32
  %36 = icmp eq i32 %35, 2
  %37 = select i1 %36, i32 4, i32 16
  store i32 %37, ptr %7, align 4
  %38 = load ptr, ptr %3, align 8
  %39 = getelementptr inbounds nuw %struct.varattrib_1b, ptr %38, i32 0, i32 0
  %40 = load i8, ptr %39, align 1
  %41 = zext i8 %40 to i32
  %42 = and i32 %41, 1
  %43 = icmp eq i32 %42, 1
  br i1 %43, label %44, label %48

44:                                               ; preds = %31
  %45 = load ptr, ptr %3, align 8
  %46 = getelementptr inbounds nuw %struct.varattrib_1b, ptr %45, i32 0, i32 1
  %47 = getelementptr inbounds [0 x i8], ptr %46, i64 0, i64 0
  br label %52

48:                                               ; preds = %31
  %49 = load ptr, ptr %3, align 8
  %50 = getelementptr inbounds nuw %struct.anon, ptr %49, i32 0, i32 1
  %51 = getelementptr inbounds [0 x i8], ptr %50, i64 0, i64 0
  br label %52

52:                                               ; preds = %48, %44
  %53 = phi ptr [ %47, %44 ], [ %51, %48 ]
  %54 = getelementptr inbounds nuw %struct.inet_struct, ptr %53, i32 0, i32 0
  %55 = load i8, ptr %54, align 1
  %56 = zext i8 %55 to i32
  %57 = icmp eq i32 %56, 2
  %58 = select i1 %57, i32 32, i32 128
  %59 = load ptr, ptr %3, align 8
  %60 = getelementptr inbounds nuw %struct.varattrib_1b, ptr %59, i32 0, i32 0
  %61 = load i8, ptr %60, align 1
  %62 = zext i8 %61 to i32
  %63 = and i32 %62, 1
  %64 = icmp eq i32 %63, 1
  br i1 %64, label %65, label %69

65:                                               ; preds = %52
  %66 = load ptr, ptr %3, align 8
  %67 = getelementptr inbounds nuw %struct.varattrib_1b, ptr %66, i32 0, i32 1
  %68 = getelementptr inbounds [0 x i8], ptr %67, i64 0, i64 0
  br label %73

69:                                               ; preds = %52
  %70 = load ptr, ptr %3, align 8
  %71 = getelementptr inbounds nuw %struct.anon, ptr %70, i32 0, i32 1
  %72 = getelementptr inbounds [0 x i8], ptr %71, i64 0, i64 0
  br label %73

73:                                               ; preds = %69, %65
  %74 = phi ptr [ %68, %65 ], [ %72, %69 ]
  %75 = getelementptr inbounds nuw %struct.inet_struct, ptr %74, i32 0, i32 1
  %76 = load i8, ptr %75, align 1
  %77 = zext i8 %76 to i32
  %78 = sub i32 %58, %77
  store i32 %78, ptr %6, align 4
  %79 = load ptr, ptr %4, align 8
  %80 = getelementptr inbounds nuw %struct.varattrib_1b, ptr %79, i32 0, i32 0
  %81 = load i8, ptr %80, align 1
  %82 = zext i8 %81 to i32
  %83 = and i32 %82, 1
  %84 = icmp eq i32 %83, 1
  br i1 %84, label %85, label %89

85:                                               ; preds = %73
  %86 = load ptr, ptr %4, align 8
  %87 = getelementptr inbounds nuw %struct.varattrib_1b, ptr %86, i32 0, i32 1
  %88 = getelementptr inbounds [0 x i8], ptr %87, i64 0, i64 0
  br label %93

89:                                               ; preds = %73
  %90 = load ptr, ptr %4, align 8
  %91 = getelementptr inbounds nuw %struct.anon, ptr %90, i32 0, i32 1
  %92 = getelementptr inbounds [0 x i8], ptr %91, i64 0, i64 0
  br label %93

93:                                               ; preds = %89, %85
  %94 = phi ptr [ %88, %85 ], [ %92, %89 ]
  %95 = getelementptr inbounds nuw %struct.inet_struct, ptr %94, i32 0, i32 2
  %96 = getelementptr inbounds [16 x i8], ptr %95, i64 0, i64 0
  store ptr %96, ptr %9, align 8
  %97 = load i32, ptr %7, align 4
  %98 = sub i32 %97, 1
  store i32 %98, ptr %5, align 4
  br label %99

99:                                               ; preds = %113, %93
  %100 = load i32, ptr %6, align 4
  %101 = icmp ne i32 %100, 0
  br i1 %101, label %102, label %121

102:                                              ; preds = %99
  %103 = load i32, ptr %6, align 4
  %104 = icmp sge i32 %103, 8
  br i1 %104, label %105, label %108

105:                                              ; preds = %102
  store i8 -1, ptr %8, align 1
  %106 = load i32, ptr %6, align 4
  %107 = sub i32 %106, 8
  store i32 %107, ptr %6, align 4
  br label %113

108:                                              ; preds = %102
  %109 = load i32, ptr %6, align 4
  %110 = sub i32 8, %109
  %111 = ashr i32 255, %110
  %112 = trunc i32 %111 to i8
  store i8 %112, ptr %8, align 1
  store i32 0, ptr %6, align 4
  br label %113

113:                                              ; preds = %108, %105
  %114 = load i8, ptr %8, align 1
  %115 = load ptr, ptr %9, align 8
  %116 = load i32, ptr %5, align 4
  %117 = sext i32 %116 to i64
  %118 = getelementptr inbounds i8, ptr %115, i64 %117
  store i8 %114, ptr %118, align 1
  %119 = load i32, ptr %5, align 4
  %120 = add i32 %119, -1
  store i32 %120, ptr %5, align 4
  br label %99, !llvm.loop !13

121:                                              ; preds = %99
  %122 = load ptr, ptr %3, align 8
  %123 = getelementptr inbounds nuw %struct.varattrib_1b, ptr %122, i32 0, i32 0
  %124 = load i8, ptr %123, align 1
  %125 = zext i8 %124 to i32
  %126 = and i32 %125, 1
  %127 = icmp eq i32 %126, 1
  br i1 %127, label %128, label %132

128:                                              ; preds = %121
  %129 = load ptr, ptr %3, align 8
  %130 = getelementptr inbounds nuw %struct.varattrib_1b, ptr %129, i32 0, i32 1
  %131 = getelementptr inbounds [0 x i8], ptr %130, i64 0, i64 0
  br label %136

132:                                              ; preds = %121
  %133 = load ptr, ptr %3, align 8
  %134 = getelementptr inbounds nuw %struct.anon, ptr %133, i32 0, i32 1
  %135 = getelementptr inbounds [0 x i8], ptr %134, i64 0, i64 0
  br label %136

136:                                              ; preds = %132, %128
  %137 = phi ptr [ %131, %128 ], [ %135, %132 ]
  %138 = getelementptr inbounds nuw %struct.inet_struct, ptr %137, i32 0, i32 0
  %139 = load i8, ptr %138, align 1
  %140 = load ptr, ptr %4, align 8
  %141 = getelementptr inbounds nuw %struct.varattrib_1b, ptr %140, i32 0, i32 0
  %142 = load i8, ptr %141, align 1
  %143 = zext i8 %142 to i32
  %144 = and i32 %143, 1
  %145 = icmp eq i32 %144, 1
  br i1 %145, label %146, label %150

146:                                              ; preds = %136
  %147 = load ptr, ptr %4, align 8
  %148 = getelementptr inbounds nuw %struct.varattrib_1b, ptr %147, i32 0, i32 1
  %149 = getelementptr inbounds [0 x i8], ptr %148, i64 0, i64 0
  br label %154

150:                                              ; preds = %136
  %151 = load ptr, ptr %4, align 8
  %152 = getelementptr inbounds nuw %struct.anon, ptr %151, i32 0, i32 1
  %153 = getelementptr inbounds [0 x i8], ptr %152, i64 0, i64 0
  br label %154

154:                                              ; preds = %150, %146
  %155 = phi ptr [ %149, %146 ], [ %153, %150 ]
  %156 = getelementptr inbounds nuw %struct.inet_struct, ptr %155, i32 0, i32 0
  store i8 %139, ptr %156, align 1
  %157 = load ptr, ptr %3, align 8
  %158 = getelementptr inbounds nuw %struct.varattrib_1b, ptr %157, i32 0, i32 0
  %159 = load i8, ptr %158, align 1
  %160 = zext i8 %159 to i32
  %161 = and i32 %160, 1
  %162 = icmp eq i32 %161, 1
  br i1 %162, label %163, label %167

163:                                              ; preds = %154
  %164 = load ptr, ptr %3, align 8
  %165 = getelementptr inbounds nuw %struct.varattrib_1b, ptr %164, i32 0, i32 1
  %166 = getelementptr inbounds [0 x i8], ptr %165, i64 0, i64 0
  br label %171

167:                                              ; preds = %154
  %168 = load ptr, ptr %3, align 8
  %169 = getelementptr inbounds nuw %struct.anon, ptr %168, i32 0, i32 1
  %170 = getelementptr inbounds [0 x i8], ptr %169, i64 0, i64 0
  br label %171

171:                                              ; preds = %167, %163
  %172 = phi ptr [ %166, %163 ], [ %170, %167 ]
  %173 = getelementptr inbounds nuw %struct.inet_struct, ptr %172, i32 0, i32 0
  %174 = load i8, ptr %173, align 1
  %175 = zext i8 %174 to i32
  %176 = icmp eq i32 %175, 2
  %177 = select i1 %176, i32 32, i32 128
  %178 = trunc i32 %177 to i8
  %179 = load ptr, ptr %4, align 8
  %180 = getelementptr inbounds nuw %struct.varattrib_1b, ptr %179, i32 0, i32 0
  %181 = load i8, ptr %180, align 1
  %182 = zext i8 %181 to i32
  %183 = and i32 %182, 1
  %184 = icmp eq i32 %183, 1
  br i1 %184, label %185, label %189

185:                                              ; preds = %171
  %186 = load ptr, ptr %4, align 8
  %187 = getelementptr inbounds nuw %struct.varattrib_1b, ptr %186, i32 0, i32 1
  %188 = getelementptr inbounds [0 x i8], ptr %187, i64 0, i64 0
  br label %193

189:                                              ; preds = %171
  %190 = load ptr, ptr %4, align 8
  %191 = getelementptr inbounds nuw %struct.anon, ptr %190, i32 0, i32 1
  %192 = getelementptr inbounds [0 x i8], ptr %191, i64 0, i64 0
  br label %193

193:                                              ; preds = %189, %185
  %194 = phi ptr [ %188, %185 ], [ %192, %189 ]
  %195 = getelementptr inbounds nuw %struct.inet_struct, ptr %194, i32 0, i32 1
  store i8 %178, ptr %195, align 1
  %196 = load ptr, ptr %4, align 8
  %197 = getelementptr inbounds nuw %struct.varattrib_1b, ptr %196, i32 0, i32 0
  %198 = load i8, ptr %197, align 1
  %199 = zext i8 %198 to i32
  %200 = and i32 %199, 1
  %201 = icmp eq i32 %200, 1
  br i1 %201, label %202, label %206

202:                                              ; preds = %193
  %203 = load ptr, ptr %4, align 8
  %204 = getelementptr inbounds nuw %struct.varattrib_1b, ptr %203, i32 0, i32 1
  %205 = getelementptr inbounds [0 x i8], ptr %204, i64 0, i64 0
  br label %210

206:                                              ; preds = %193
  %207 = load ptr, ptr %4, align 8
  %208 = getelementptr inbounds nuw %struct.anon, ptr %207, i32 0, i32 1
  %209 = getelementptr inbounds [0 x i8], ptr %208, i64 0, i64 0
  br label %210

210:                                              ; preds = %206, %202
  %211 = phi ptr [ %205, %202 ], [ %209, %206 ]
  %212 = getelementptr inbounds nuw %struct.inet_struct, ptr %211, i32 0, i32 0
  %213 = load i8, ptr %212, align 1
  %214 = zext i8 %213 to i32
  %215 = icmp eq i32 %214, 2
  %216 = select i1 %215, i32 4, i32 16
  %217 = sext i32 %216 to i64
  %218 = add i64 6, %217
  %219 = trunc i64 %218 to i32
  %220 = shl i32 %219, 2
  %221 = load ptr, ptr %4, align 8
  %222 = getelementptr inbounds nuw %struct.anon, ptr %221, i32 0, i32 0
  store i32 %220, ptr %222, align 4
  %223 = load ptr, ptr %4, align 8
  %224 = call i64 @InetPGetDatum(ptr noundef %223)
  call void @llvm.lifetime.end.p0(i64 8, ptr %9) #8
  call void @llvm.lifetime.end.p0(i64 1, ptr %8) #8
  call void @llvm.lifetime.end.p0(i64 4, ptr %7) #8
  call void @llvm.lifetime.end.p0(i64 4, ptr %6) #8
  call void @llvm.lifetime.end.p0(i64 4, ptr %5) #8
  call void @llvm.lifetime.end.p0(i64 8, ptr %4) #8
  call void @llvm.lifetime.end.p0(i64 8, ptr %3) #8
  ret i64 %224
}