; Function Attrs: nounwind uwtable
define dso_local noundef i64 @network_hostmask(ptr noundef readonly captures(none) %0) local_unnamed_addr #0 {
  %2 = getelementptr inbounds nuw i8, ptr %0, i64 32
  %3 = load i64, ptr %2, align 8
  %4 = inttoptr i64 %3 to ptr
  %5 = tail call ptr @pg_detoast_datum_packed(ptr noundef %4) #14
  %6 = tail call ptr @palloc0(i64 noundef 22) #14
  %7 = load i8, ptr %5, align 1
  %8 = and i8 %7, 1
  %.not = icmp eq i8 %8, 0
  %9 = getelementptr inbounds nuw i8, ptr %5, i64 1
  %10 = getelementptr inbounds nuw i8, ptr %5, i64 4
  %11 = select i1 %.not, ptr %10, ptr %9
  %12 = load i8, ptr %11, align 1
  %13 = icmp eq i8 %12, 2
  %14 = select i1 %13, i32 32, i32 128
  %15 = getelementptr inbounds nuw i8, ptr %11, i64 1
  %16 = load i8, ptr %15, align 1
  %17 = zext i8 %16 to i32
  %18 = sub nsw i32 %14, %17
  %19 = load i8, ptr %6, align 1
  %20 = and i8 %19, 1
  %.not40 = icmp eq i8 %20, 0
  %21 = getelementptr inbounds nuw i8, ptr %6, i64 1
  %22 = getelementptr inbounds nuw i8, ptr %6, i64 4
  %23 = select i1 %.not40, ptr %22, ptr %21
  %24 = getelementptr inbounds nuw i8, ptr %23, i64 2
  %.not4147 = icmp eq i32 %18, 0
  br i1 %.not4147, label %select.unfold._crit_edge, label %select.unfold.preheader

select.unfold.preheader:                          ; preds = %1
  %25 = select i1 %13, i32 3, i32 15
  br label %select.unfold

select.unfold:                                    ; preds = %select.unfold.preheader, %select.unfold
  %.049 = phi i32 [ %32, %select.unfold ], [ %25, %select.unfold.preheader ]
  %.03948 = phi i32 [ %spec.select, %select.unfold ], [ %18, %select.unfold.preheader ]
  %26 = icmp sgt i32 %.03948, 7
  %27 = sub nsw i32 8, %.03948
  %28 = lshr i32 255, %27
  %29 = trunc nuw i32 %28 to i8
  %.038 = select i1 %26, i8 -1, i8 %29
  %30 = sext i32 %.049 to i64
  %31 = getelementptr inbounds i8, ptr %24, i64 %30
  store i8 %.038, ptr %31, align 1
  %32 = add i32 %.049, -1
  %33 = tail call i32 @llvm.smax.i32(i32 %.03948, i32 8)
  %spec.select = add nsw i32 %33, -8
  %.not41 = icmp eq i32 %spec.select, 0
  br i1 %.not41, label %select.unfold._crit_edge.loopexit, label %select.unfold

select.unfold._crit_edge.loopexit:                ; preds = %select.unfold
  %.pre = load i8, ptr %5, align 1
  %.pre50 = load i8, ptr %6, align 1
  %.pre51 = and i8 %.pre, 1
  %.pre52 = and i8 %.pre50, 1
  br label %select.unfold._crit_edge

select.unfold._crit_edge:                         ; preds = %select.unfold._crit_edge.loopexit, %1
  %.pre-phi53 = phi i8 [ %.pre52, %select.unfold._crit_edge.loopexit ], [ %20, %1 ]
  %.pre-phi = phi i8 [ %.pre51, %select.unfold._crit_edge.loopexit ], [ %8, %1 ]
  %.not42 = icmp eq i8 %.pre-phi, 0
  %34 = select i1 %.not42, ptr %10, ptr %9
  %35 = load i8, ptr %34, align 1
  %.not43 = icmp eq i8 %.pre-phi53, 0
  %36 = select i1 %.not43, ptr %22, ptr %21
  store i8 %35, ptr %36, align 1
  %37 = load i8, ptr %5, align 1
  %38 = and i8 %37, 1
  %.not44 = icmp eq i8 %38, 0
  %39 = select i1 %.not44, ptr %10, ptr %9
  %40 = load i8, ptr %39, align 1
  %41 = icmp eq i8 %40, 2
  %42 = select i1 %41, i8 32, i8 -128
  %43 = getelementptr inbounds nuw i8, ptr %36, i64 1
  store i8 %42, ptr %43, align 1
  %44 = load i8, ptr %6, align 1
  %45 = and i8 %44, 1
  %.not46 = icmp eq i8 %45, 0
  %46 = select i1 %.not46, ptr %22, ptr %21
  %47 = load i8, ptr %46, align 1
  %48 = icmp eq i8 %47, 2
  %49 = select i1 %48, i32 40, i32 88
  store i32 %49, ptr %6, align 4
  %50 = ptrtoint ptr %6 to i64
  ret i64 %50
}